target datalayout = "e-m:e-p270:32:32-p271:32:32-p272:64:64-i64:64-i128:128-f80:128-n8:16:32:64-S128"
target triple = "x86_64-pc-linux-gnu"

%"class.llvm::MCRegisterClass" = type { ptr, ptr, i32, i16, i16, i16, i16, i8, i8, i8 }
%"class.llvm::TargetRegisterClass" = type { ptr, ptr, ptr, %"struct.llvm::LaneBitmask", i8, i8, i8, i8, i8, ptr, ptr }
%"struct.llvm::LaneBitmask" = type { i64 }

; Function Attrs: mustprogress nounwind uwtable
define linkonce_odr hidden noundef i32 @_ZNK4llvm15MCRegisterClass5getIDEv(ptr noundef nonnull align 8 dereferenceable(32) %0) #0 comdat align 2 {
  %2 = alloca ptr, align 8
  store ptr %0, ptr %2, align 8
  %3 = load ptr, ptr %2, align 8
  %4 = getelementptr inbounds nuw %"class.llvm::MCRegisterClass", ptr %3, i32 0, i32 5
  %5 = load i16, ptr %4, align 8
  %6 = zext i16 %5 to i32
  ret i32 %6
}

; Function Attrs: mustprogress nounwind uwtable
define linkonce_odr hidden noundef i32 @_ZNK4llvm19TargetRegisterClass5getIDEv(ptr noundef nonnull align 8 dereferenceable(56) %0) #0 comdat align 2 {
  %2 = alloca ptr, align 8
  store ptr %0, ptr %2, align 8
  %3 = load ptr, ptr %2, align 8
  %4 = getelementptr inbounds nuw %"class.llvm::TargetRegisterClass", ptr %3, i32 0, i32 0
  %5 = load ptr, ptr %4, align 8
  %6 = call noundef i32 @_ZNK4llvm15MCRegisterClass5getIDEv(ptr noundef nonnull align 8 dereferenceable(32) %5)
  ret i32 %6
}

; Function Attrs: mustprogress nounwind uwtable
define dso_local noundef ptr @_ZNK4llvm20RISCVGenRegisterInfo23getRegClassPressureSetsEPKNS_19TargetRegisterClassE(ptr noundef nonnull align 8 dereferenceable(308) %0, ptr noundef %1) unnamed_addr #0 align 2 {
  %3 = alloca ptr, align 8
  %4 = alloca ptr, align 8
  store ptr %0, ptr %3, align 8
  store ptr %1, ptr %4, align 8
  %5 = load ptr, ptr %4, align 8
  %6 = call noundef i32 @_ZNK4llvm19TargetRegisterClass5getIDEv(ptr noundef nonnull align 8 dereferenceable(56) %5)
  %7 = zext i32 %6 to i64
  %8 = getelementptr inbounds [87 x i8], ptr @_ZZNK4llvm20RISCVGenRegisterInfo23getRegClassPressureSetsEPKNS_19TargetRegisterClassEE15RCSetStartTable, i64 0, i64 %7
  %9 = load i8, ptr %8, align 1
  %10 = zext i8 %9 to i64
  %11 = getelementptr inbounds [38 x i32], ptr @_ZN4llvmL11RCSetsTableE, i64 0, i64 %10
  ret ptr %11
}