; Function Attrs: mustprogress nofree norecurse nosync nounwind willreturn memory(read, inaccessiblemem: none) uwtable
define dso_local noundef nonnull ptr @_ZNK4llvm20RISCVGenRegisterInfo23getRegClassPressureSetsEPKNS_19TargetRegisterClassE(ptr nocapture nonnull readnone align 8 %0, ptr nocapture noundef readonly %1) unnamed_addr #1 align 2 {
  %3 = load ptr, ptr %1, align 8
  %4 = getelementptr inbounds nuw i8, ptr %3, i64 24
  %5 = load i16, ptr %4, align 8
  %6 = zext i16 %5 to i64
  %7 = getelementptr inbounds [87 x i8], ptr @_ZZNK4llvm20RISCVGenRegisterInfo23getRegClassPressureSetsEPKNS_19TargetRegisterClassEE15RCSetStartTable, i64 0, i64 %6
  %8 = load i8, ptr %7, align 1
  %9 = zext i8 %8 to i64
  %10 = getelementptr inbounds [38 x i32], ptr @_ZN4llvmL11RCSetsTableE, i64 0, i64 %9
  ret ptr %10
}